target datalayout = "e-m:e-p270:32:32-p271:32:32-p272:64:64-i64:64-i128:128-f80:128-n8:16:32:64-S128"
target triple = "x86_64-pc-linux-gnu"

%struct.JNINativeInterface_ = type { ptr, ptr, ptr, ptr, ptr, ptr, ptr, ptr, ptr, ptr, ptr, ptr, ptr, ptr, ptr, ptr, ptr, ptr, ptr, ptr, ptr, ptr, ptr, ptr, ptr, ptr, ptr, ptr, ptr, ptr, ptr, ptr, ptr, ptr, ptr, ptr, ptr, ptr, ptr, ptr, ptr, ptr, ptr, ptr, ptr, ptr, ptr, ptr, ptr, ptr, ptr, ptr, ptr, ptr, ptr, ptr, ptr, ptr, ptr, ptr, ptr, ptr, ptr, ptr, ptr, ptr, ptr, ptr, ptr, ptr, ptr, ptr, ptr, ptr, ptr, ptr, ptr, ptr, ptr, ptr, ptr, ptr, ptr, ptr, ptr, ptr, ptr, ptr, ptr, ptr, ptr, ptr, ptr, ptr, ptr, ptr, ptr, ptr, ptr, ptr, ptr, ptr, ptr, ptr, ptr, ptr, ptr, ptr, ptr, ptr, ptr, ptr, ptr, ptr, ptr, ptr, ptr, ptr, ptr, ptr, ptr, ptr, ptr, ptr, ptr, ptr, ptr, ptr, ptr, ptr, ptr, ptr, ptr, ptr, ptr, ptr, ptr, ptr, ptr, ptr, ptr, ptr, ptr, ptr, ptr, ptr, ptr, ptr, ptr, ptr, ptr, ptr, ptr, ptr, ptr, ptr, ptr, ptr, ptr, ptr, ptr, ptr, ptr, ptr, ptr, ptr, ptr, ptr, ptr, ptr, ptr, ptr, ptr, ptr, ptr, ptr, ptr, ptr, ptr, ptr, ptr, ptr, ptr, ptr, ptr, ptr, ptr, ptr, ptr, ptr, ptr, ptr, ptr, ptr, ptr, ptr, ptr, ptr, ptr, ptr, ptr, ptr, ptr, ptr, ptr, ptr, ptr, ptr, ptr, ptr, ptr, ptr, ptr, ptr, ptr, ptr, ptr, ptr, ptr, ptr, ptr, ptr, ptr, ptr, ptr, ptr, ptr, ptr, ptr, ptr, ptr, ptr, ptr, ptr, ptr }
%struct.passwd = type { ptr, ptr, i32, i32, ptr, ptr, ptr }

@.str.45 = private unnamed_addr constant [12 x i8] c"native heap\00", align 1
@.str.46 = private unnamed_addr constant [25 x i8] c"sun/nio/fs/UnixException\00", align 1
@.str.47 = private unnamed_addr constant [5 x i8] c"(I)V\00", align 1

; Function Attrs: nounwind uwtable
define internal void @throwUnixException(ptr noundef %0, i32 noundef %1) #0 {
  %3 = alloca ptr, align 8
  %4 = alloca i32, align 4
  %5 = alloca ptr, align 8
  store ptr %0, ptr %3, align 8
  store i32 %1, ptr %4, align 4
  %6 = load ptr, ptr %3, align 8
  %7 = load i32, ptr %4, align 4
  %8 = call ptr (ptr, ptr, ptr, ...) @JNU_NewObjectByName(ptr noundef %6, ptr noundef @.str.46, ptr noundef @.str.47, i32 noundef %7)
  store ptr %8, ptr %5, align 8
  %9 = load ptr, ptr %5, align 8
  %10 = icmp ne ptr %9, null
  br i1 %10, label %11, label %19

11:                                               ; preds = %2
  %12 = load ptr, ptr %3, align 8
  %13 = load ptr, ptr %12, align 8
  %14 = getelementptr inbounds %struct.JNINativeInterface_, ptr %13, i32 0, i32 13
  %15 = load ptr, ptr %14, align 8
  %16 = load ptr, ptr %3, align 8
  %17 = load ptr, ptr %5, align 8
  %18 = call i32 %15(ptr noundef %16, ptr noundef %17)
  br label %19

19:                                               ; preds = %11, %2
  ret void
}

; Function Attrs: nounwind uwtable
define ptr @Java_sun_nio_fs_UnixNativeDispatcher_getpwuid(ptr noundef %0, ptr noundef %1, i32 noundef %2) #0 {
  %4 = alloca ptr, align 8
  %5 = alloca ptr, align 8
  %6 = alloca i32, align 4
  %7 = alloca ptr, align 8
  %8 = alloca i32, align 4
  %9 = alloca ptr, align 8
  %10 = alloca %struct.passwd, align 8
  %11 = alloca ptr, align 8
  %12 = alloca i32, align 4
  %13 = alloca i32, align 4
  store ptr %0, ptr %4, align 8
  store ptr %1, ptr %5, align 8
  store i32 %2, ptr %6, align 4
  store ptr null, ptr %7, align 8
  %14 = call i64 @sysconf(i32 noundef 70) #6
  %15 = trunc i64 %14 to i32
  store i32 %15, ptr %8, align 4
  %16 = load i32, ptr %8, align 4
  %17 = icmp eq i32 %16, -1
  br i1 %17, label %18, label %19

18:                                               ; preds = %3
  store i32 1024, ptr %8, align 4
  br label %19

19:                                               ; preds = %18, %3
  %20 = load i32, ptr %8, align 4
  %21 = sext i32 %20 to i64
  %22 = call noalias ptr @malloc(i64 noundef %21) #9
  store ptr %22, ptr %9, align 8
  %23 = load ptr, ptr %9, align 8
  %24 = icmp eq ptr %23, null
  br i1 %24, label %25, label %27

25:                                               ; preds = %19
  %26 = load ptr, ptr %4, align 8
  call void @JNU_ThrowOutOfMemoryError(ptr noundef %26, ptr noundef @.str.45)
  br label %103

27:                                               ; preds = %19
  store ptr null, ptr %11, align 8
  store i32 0, ptr %12, align 4
  %28 = call ptr @__errno_location() #7
  store i32 0, ptr %28, align 4
  br label %29

29:                                               ; preds = %27
  br label %30

30:                                               ; preds = %43, %29
  %31 = load i32, ptr %6, align 4
  %32 = load ptr, ptr %9, align 8
  %33 = load i32, ptr %8, align 4
  %34 = sext i32 %33 to i64
  %35 = call i32 @getpwuid_r(i32 noundef %31, ptr noundef %10, ptr noundef %32, i64 noundef %34, ptr noundef %11)
  store i32 %35, ptr %12, align 4
  br label %36

36:                                               ; preds = %30
  %37 = load i32, ptr %12, align 4
  %38 = icmp eq i32 %37, -1
  br i1 %38, label %39, label %43

39:                                               ; preds = %36
  %40 = call ptr @__errno_location() #7
  %41 = load i32, ptr %40, align 4
  %42 = icmp eq i32 %41, 4
  br label %43

43:                                               ; preds = %39, %36
  %44 = phi i1 [ false, %36 ], [ %42, %39 ]
  br i1 %44, label %30, label %45, !llvm.loop !33

45:                                               ; preds = %43
  br label %46

46:                                               ; preds = %45
  %47 = load i32, ptr %12, align 4
  %48 = icmp ne i32 %47, 0
  br i1 %48, label %64, label %49

49:                                               ; preds = %46
  %50 = load ptr, ptr %11, align 8
  %51 = icmp eq ptr %50, null
  br i1 %51, label %64, label %52

52:                                               ; preds = %49
  %53 = load ptr, ptr %11, align 8
  %54 = getelementptr inbounds %struct.passwd, ptr %53, i32 0, i32 0
  %55 = load ptr, ptr %54, align 8
  %56 = icmp eq ptr %55, null
  br i1 %56, label %64, label %57

57:                                               ; preds = %52
  %58 = load ptr, ptr %11, align 8
  %59 = getelementptr inbounds %struct.passwd, ptr %58, i32 0, i32 0
  %60 = load ptr, ptr %59, align 8
  %61 = load i8, ptr %60, align 1
  %62 = sext i8 %61 to i32
  %63 = icmp eq i32 %62, 0
  br i1 %63, label %64, label %74

64:                                               ; preds = %57, %52, %49, %46
  %65 = call ptr @__errno_location() #7
  %66 = load i32, ptr %65, align 4
  %67 = icmp eq i32 %66, 0
  br i1 %67, label %68, label %70

68:                                               ; preds = %64
  %69 = call ptr @__errno_location() #7
  store i32 2, ptr %69, align 4
  br label %70

70:                                               ; preds = %68, %64
  %71 = load ptr, ptr %4, align 8
  %72 = call ptr @__errno_location() #7
  %73 = load i32, ptr %72, align 4
  call void @throwUnixException(ptr noundef %71, i32 noundef %73)
  br label %101

74:                                               ; preds = %57
  %75 = load ptr, ptr %11, align 8
  %76 = getelementptr inbounds %struct.passwd, ptr %75, i32 0, i32 0
  %77 = load ptr, ptr %76, align 8
  %78 = call i64 @strlen(ptr noundef %77) #8
  %79 = trunc i64 %78 to i32
  store i32 %79, ptr %13, align 4
  %80 = load ptr, ptr %4, align 8
  %81 = load ptr, ptr %80, align 8
  %82 = getelementptr inbounds %struct.JNINativeInterface_, ptr %81, i32 0, i32 176
  %83 = load ptr, ptr %82, align 8
  %84 = load ptr, ptr %4, align 8
  %85 = load i32, ptr %13, align 4
  %86 = call ptr %83(ptr noundef %84, i32 noundef %85)
  store ptr %86, ptr %7, align 8
  %87 = load ptr, ptr %7, align 8
  %88 = icmp ne ptr %87, null
  br i1 %88, label %89, label %100

89:                                               ; preds = %74
  %90 = load ptr, ptr %4, align 8
  %91 = load ptr, ptr %90, align 8
  %92 = getelementptr inbounds %struct.JNINativeInterface_, ptr %91, i32 0, i32 208
  %93 = load ptr, ptr %92, align 8
  %94 = load ptr, ptr %4, align 8
  %95 = load ptr, ptr %7, align 8
  %96 = load i32, ptr %13, align 4
  %97 = load ptr, ptr %11, align 8
  %98 = getelementptr inbounds %struct.passwd, ptr %97, i32 0, i32 0
  %99 = load ptr, ptr %98, align 8
  call void %93(ptr noundef %94, ptr noundef %95, i32 noundef 0, i32 noundef %96, ptr noundef %99)
  br label %100

100:                                              ; preds = %89, %74
  br label %101

101:                                              ; preds = %100, %70
  %102 = load ptr, ptr %9, align 8
  call void @free(ptr noundef %102) #6
  br label %103

103:                                              ; preds = %101, %25
  %104 = load ptr, ptr %7, align 8
  ret ptr %104
}