; Function Attrs: nounwind uwtable
define ptr @Java_sun_nio_fs_UnixNativeDispatcher_getpwuid(ptr noundef %0, ptr nocapture noundef readnone %1, i32 noundef %2) local_unnamed_addr #0 {
  %4 = alloca %struct.passwd, align 8
  %5 = alloca ptr, align 8
  %6 = tail call i64 @sysconf(i32 noundef 70) #11
  %7 = and i64 %6, 4294967295
  %8 = icmp eq i64 %7, 4294967295
  %9 = shl i64 %6, 32
  %10 = ashr exact i64 %9, 32
  %11 = select i1 %8, i64 1024, i64 %10
  %12 = tail call noalias ptr @malloc(i64 noundef %11) #14
  %13 = icmp eq ptr %12, null
  br i1 %13, label %14, label %15

14:                                               ; preds = %3
  tail call void @JNU_ThrowOutOfMemoryError(ptr noundef %0, ptr noundef nonnull @.str.45) #11
  br label %56

15:                                               ; preds = %3
  store ptr null, ptr %5, align 8
  %16 = tail call ptr @__errno_location() #12
  store i32 0, ptr %16, align 4
  br label %17

17:                                               ; preds = %20, %15
  %18 = call i32 @getpwuid_r(i32 noundef %2, ptr noundef nonnull %4, ptr noundef nonnull %12, i64 noundef %11, ptr noundef nonnull %5) #11
  %19 = icmp eq i32 %18, -1
  br i1 %19, label %20, label %.critedge

20:                                               ; preds = %17
  %21 = load i32, ptr %16, align 4
  %22 = icmp eq i32 %21, 4
  br i1 %22, label %17, label %.critedge.thread, !llvm.loop !49

.critedge:                                        ; preds = %17
  %23 = icmp ne i32 %18, 0
  %24 = load ptr, ptr %5, align 8
  %25 = icmp eq ptr %24, null
  %or.cond = select i1 %23, i1 true, i1 %25
  br i1 %or.cond, label %thread-pre-split, label %26

26:                                               ; preds = %.critedge
  %27 = load ptr, ptr %24, align 8
  %28 = icmp eq ptr %27, null
  br i1 %28, label %thread-pre-split, label %29

29:                                               ; preds = %26
  %30 = load i8, ptr %27, align 1
  %31 = icmp eq i8 %30, 0
  br i1 %31, label %thread-pre-split, label %43

thread-pre-split:                                 ; preds = %.critedge, %26, %29
  %.pr = load i32, ptr %16, align 4
  br label %.critedge.thread

.critedge.thread:                                 ; preds = %20, %thread-pre-split
  %32 = phi i32 [ %.pr, %thread-pre-split ], [ %21, %20 ]
  %33 = icmp eq i32 %32, 0
  br i1 %33, label %34, label %35

34:                                               ; preds = %.critedge.thread
  store i32 2, ptr %16, align 4
  br label %35

35:                                               ; preds = %34, %.critedge.thread
  %36 = phi i32 [ 2, %34 ], [ %32, %.critedge.thread ]
  %37 = call ptr (ptr, ptr, ptr, ...) @JNU_NewObjectByName(ptr noundef %0, ptr noundef nonnull @.str.46, ptr noundef nonnull @.str.47, i32 noundef %36) #11
  %.not.i = icmp eq ptr %37, null
  br i1 %.not.i, label %throwUnixException.exit, label %38

38:                                               ; preds = %35
  %39 = load ptr, ptr %0, align 8
  %40 = getelementptr inbounds i8, ptr %39, i64 104
  %41 = load ptr, ptr %40, align 8
  %42 = call i32 %41(ptr noundef nonnull %0, ptr noundef nonnull %37) #11
  br label %throwUnixException.exit

43:                                               ; preds = %29
  %44 = call i64 @strlen(ptr noundef nonnull dereferenceable(1) %27) #13
  %45 = trunc i64 %44 to i32
  %46 = load ptr, ptr %0, align 8
  %47 = getelementptr inbounds i8, ptr %46, i64 1408
  %48 = load ptr, ptr %47, align 8
  %49 = call ptr %48(ptr noundef nonnull %0, i32 noundef %45) #11
  %.not = icmp eq ptr %49, null
  br i1 %.not, label %throwUnixException.exit, label %50

50:                                               ; preds = %43
  %51 = load ptr, ptr %0, align 8
  %52 = getelementptr inbounds i8, ptr %51, i64 1664
  %53 = load ptr, ptr %52, align 8
  %54 = load ptr, ptr %5, align 8
  %55 = load ptr, ptr %54, align 8
  call void %53(ptr noundef nonnull %0, ptr noundef nonnull %49, i32 noundef 0, i32 noundef %45, ptr noundef %55) #11
  br label %throwUnixException.exit

throwUnixException.exit:                          ; preds = %38, %35, %43, %50
  %.0 = phi ptr [ %49, %50 ], [ null, %43 ], [ null, %35 ], [ null, %38 ]
  call void @free(ptr noundef %12) #11
  br label %56

56:                                               ; preds = %throwUnixException.exit, %14
  %.1 = phi ptr [ null, %14 ], [ %.0, %throwUnixException.exit ]
  ret ptr %.1
}